; Function Attrs: mustprogress uwtable
define void @_ZN6icu_757MeasureC2Ev(ptr noundef nonnull align 8 dereferenceable(128) %this) unnamed_addr #1 align 2 personality ptr @__gxx_personality_v0 {
entry:
  store ptr getelementptr inbounds ({ [6 x ptr] }, ptr @_ZTVN6icu_757MeasureE, i64 0, i32 0, i64 2), ptr %this, align 8
  %number = getelementptr inbounds i8, ptr %this, i64 8
  invoke void @_ZN6icu_7511FormattableC1Ev(ptr noundef nonnull align 8 dereferenceable(112) %number)
          to label %invoke.cont unwind label %lpad

invoke.cont:                                      ; preds = %entry
  %unit = getelementptr inbounds i8, ptr %this, i64 120
  store ptr null, ptr %unit, align 8
  ret void

lpad:                                             ; preds = %entry
  %0 = landingpad { ptr, i32 }
          cleanup
  tail call void @_ZN6icu_757UObjectD2Ev(ptr noundef nonnull align 8 dereferenceable(8) %this) #6
  resume { ptr, i32 } %0
}